target datalayout = "e-m:e-p270:32:32-p271:32:32-p272:64:64-i64:64-i128:128-f80:128-n8:16:32:64-S128"
target triple = "x86_64-pc-linux-gnu"

%struct.gpg_format = type { ptr, ptr, ptr, ptr, ptr, ptr, ptr, ptr }

@use_format = internal global ptr @gpg_format, align 8
@gpg_interface_lazy_init.done = internal global i32 0, align 4
@the_repository = external global ptr, align 8

; Function Attrs: inlinehint nounwind uwtable
define internal void @git_config(ptr noundef %0, ptr noundef %1) #4 {
  %3 = alloca ptr, align 8
  %4 = alloca ptr, align 8
  store ptr %0, ptr %3, align 8, !tbaa !54
  store ptr %1, ptr %4, align 8, !tbaa !54
  %5 = load ptr, ptr @the_repository, align 8, !tbaa !55
  %6 = load ptr, ptr %3, align 8, !tbaa !54
  %7 = load ptr, ptr %4, align 8, !tbaa !54
  call void @repo_config(ptr noundef %5, ptr noundef %6, ptr noundef %7)
  ret void
}

; Function Attrs: nounwind uwtable
define internal void @gpg_interface_lazy_init() #0 {
  %1 = load i32, ptr @gpg_interface_lazy_init.done, align 4, !tbaa !29
  %2 = icmp ne i32 %1, 0
  br i1 %2, label %3, label %4

3:                                                ; preds = %0
  br label %5

4:                                                ; preds = %0
  store i32 1, ptr @gpg_interface_lazy_init.done, align 4, !tbaa !29
  call void @git_config(ptr noundef @git_gpg_config, ptr noundef null)
  br label %5

5:                                                ; preds = %4, %3
  ret void
}

; Function Attrs: nounwind uwtable
define dso_local i32 @sign_buffer(ptr noundef %0, ptr noundef %1, ptr noundef %2) #0 {
  %4 = alloca ptr, align 8
  %5 = alloca ptr, align 8
  %6 = alloca ptr, align 8
  store ptr %0, ptr %4, align 8, !tbaa !44
  store ptr %1, ptr %5, align 8, !tbaa !44
  store ptr %2, ptr %6, align 8, !tbaa !20
  call void @gpg_interface_lazy_init()
  %7 = load ptr, ptr @use_format, align 8, !tbaa !24
  %8 = getelementptr inbounds nuw %struct.gpg_format, ptr %7, i32 0, i32 5
  %9 = load ptr, ptr %8, align 8, !tbaa !53
  %10 = load ptr, ptr %4, align 8, !tbaa !44
  %11 = load ptr, ptr %5, align 8, !tbaa !44
  %12 = load ptr, ptr %6, align 8, !tbaa !20
  %13 = call i32 %9(ptr noundef %10, ptr noundef %11, ptr noundef %12)
  ret i32 %13
}