; Function Attrs: nounwind uwtable
define dso_local i32 @sign_buffer(ptr noundef %0, ptr noundef %1, ptr noundef %2) local_unnamed_addr #2 {
  %.b.i = load i1, ptr @gpg_interface_lazy_init.done, align 4
  br i1 %.b.i, label %gpg_interface_lazy_init.exit, label %4

4:                                                ; preds = %3
  store i1 true, ptr @gpg_interface_lazy_init.done, align 4
  %5 = load ptr, ptr @the_repository, align 8, !tbaa !18
  tail call void @repo_config(ptr noundef %5, ptr noundef nonnull @git_gpg_config, ptr noundef null) #15
  br label %gpg_interface_lazy_init.exit

gpg_interface_lazy_init.exit:                     ; preds = %3, %4
  %6 = load ptr, ptr @use_format, align 8, !tbaa !38
  %7 = getelementptr inbounds nuw i8, ptr %6, i64 40
  %8 = load ptr, ptr %7, align 8, !tbaa !45
  %9 = tail call i32 %8(ptr noundef %0, ptr noundef %1, ptr noundef %2) #15
  ret i32 %9
}